target datalayout = "e-m:e-p270:32:32-p271:32:32-p272:64:64-i64:64-i128:128-f80:128-n8:16:32:64-S128"
target triple = "x86_64-pc-linux-gnu"

%struct.block_q4_0 = type { i16, [16 x i8] }
%struct.ggml_tensor = type { i32, ptr, [4 x i64], [4 x i64], i32, [16 x i32], i32, [10 x ptr], ptr, i64, ptr, [64 x i8], ptr, [8 x i8] }
%struct.block.0 = type { [8 x i16], [128 x i8] }

@.str = private unnamed_addr constant [136 x i8] c"generated/home/dtcxzyw/WorkSpace/Projects/compilers/llvm-opt-benchmark/bench/llama.cpp/llama.cpp/ggml/src/ggml-cpu/ggml-cpu-aarch64.cpp\00", align 1
@.str.1 = private unnamed_addr constant [23 x i8] c"GGML_ASSERT(%s) failed\00", align 1
@.str.2 = private unnamed_addr constant [26 x i8] c"t->type == GGML_TYPE_Q4_0\00", align 1
@.str.4 = private unnamed_addr constant [49 x i8] c"data_size == nrow * nblocks * sizeof(block_q4_0)\00", align 1
@.str.6 = private unnamed_addr constant [22 x i8] c"interleave_block == 8\00", align 1

; Function Attrs: mustprogress nounwind uwtable
define internal void @_ZL17make_block_q4_0x8P10block_q4_0j(ptr dead_on_unwind noalias writable sret(%struct.block.0) align 2 %0, ptr noundef %1, i32 noundef %2) #5 {
  %4 = alloca ptr, align 8
  %5 = alloca i32, align 4
  %6 = alloca i32, align 4
  %7 = alloca i32, align 4
  %8 = alloca i64, align 8
  %9 = alloca i32, align 4
  %10 = alloca i32, align 4
  %11 = alloca i32, align 4
  %12 = alloca i32, align 4
  %13 = alloca i64, align 8
  store ptr %1, ptr %4, align 8, !tbaa !9
  store i32 %2, ptr %5, align 4, !tbaa !12
  call void @llvm.lifetime.start.p0(i64 4, ptr %6) #23
  store i32 0, ptr %6, align 4, !tbaa !12
  br label %14

14:                                               ; preds = %29, %3
  %15 = load i32, ptr %6, align 4, !tbaa !12
  %16 = icmp slt i32 %15, 8
  br i1 %16, label %18, label %17

17:                                               ; preds = %14
  call void @llvm.lifetime.end.p0(i64 4, ptr %6) #23
  br label %32

18:                                               ; preds = %14
  %19 = load ptr, ptr %4, align 8, !tbaa !9
  %20 = load i32, ptr %6, align 4, !tbaa !12
  %21 = sext i32 %20 to i64
  %22 = getelementptr inbounds %struct.block_q4_0, ptr %19, i64 %21
  %23 = getelementptr inbounds nuw %struct.block_q4_0, ptr %22, i32 0, i32 0
  %24 = load i16, ptr %23, align 2, !tbaa !31
  %25 = getelementptr inbounds nuw %struct.block.0, ptr %0, i32 0, i32 0
  %26 = load i32, ptr %6, align 4, !tbaa !12
  %27 = sext i32 %26 to i64
  %28 = getelementptr inbounds [8 x i16], ptr %25, i64 0, i64 %27
  store i16 %24, ptr %28, align 2, !tbaa !23
  br label %29

29:                                               ; preds = %18
  %30 = load i32, ptr %6, align 4, !tbaa !12
  %31 = add nsw i32 %30, 1
  store i32 %31, ptr %6, align 4, !tbaa !12
  br label %14, !llvm.loop !42

32:                                               ; preds = %17
  call void @llvm.lifetime.start.p0(i64 4, ptr %7) #23
  %33 = load i32, ptr %5, align 4, !tbaa !12
  %34 = udiv i32 128, %33
  store i32 %34, ptr %7, align 4, !tbaa !12
  call void @llvm.lifetime.start.p0(i64 8, ptr %8) #23
  store i64 -8608480567731124088, ptr %8, align 8, !tbaa !10
  call void @llvm.lifetime.start.p0(i64 4, ptr %9) #23
  store i32 0, ptr %9, align 4, !tbaa !12
  br label %35

35:                                               ; preds = %64, %32
  %36 = load i32, ptr %9, align 4, !tbaa !12
  %37 = load i32, ptr %7, align 4, !tbaa !12
  %38 = icmp slt i32 %36, %37
  br i1 %38, label %40, label %39

39:                                               ; preds = %35
  call void @llvm.lifetime.end.p0(i64 4, ptr %9) #23
  br label %67

40:                                               ; preds = %35
  call void @llvm.lifetime.start.p0(i64 4, ptr %10) #23
  %41 = load i32, ptr %9, align 4, !tbaa !12
  %42 = srem i32 %41, 8
  store i32 %42, ptr %10, align 4, !tbaa !12
  call void @llvm.lifetime.start.p0(i64 4, ptr %11) #23
  %43 = load i32, ptr %9, align 4, !tbaa !12
  %44 = sdiv i32 %43, 8
  %45 = load i32, ptr %5, align 4, !tbaa !12
  %46 = mul i32 %44, %45
  store i32 %46, ptr %11, align 4, !tbaa !12
  call void @llvm.lifetime.start.p0(i64 4, ptr %12) #23
  %47 = load i32, ptr %9, align 4, !tbaa !12
  %48 = load i32, ptr %5, align 4, !tbaa !12
  %49 = mul i32 %47, %48
  store i32 %49, ptr %12, align 4, !tbaa !12
  call void @llvm.lifetime.start.p0(i64 8, ptr %13) #23
  %50 = load ptr, ptr %4, align 8, !tbaa !9
  %51 = load i32, ptr %10, align 4, !tbaa !12
  %52 = sext i32 %51 to i64
  %53 = getelementptr inbounds %struct.block_q4_0, ptr %50, i64 %52
  %54 = getelementptr inbounds nuw %struct.block_q4_0, ptr %53, i32 0, i32 1
  %55 = load i32, ptr %11, align 4, !tbaa !12
  %56 = sext i32 %55 to i64
  %57 = getelementptr inbounds [16 x i8], ptr %54, i64 0, i64 %56
  call void @llvm.memcpy.p0.p0.i64(ptr align 8 %13, ptr align 1 %57, i64 8, i1 false)
  %58 = load i64, ptr %13, align 8, !tbaa !10
  %59 = xor i64 %58, -8608480567731124088
  store i64 %59, ptr %13, align 8, !tbaa !10
  %60 = getelementptr inbounds nuw %struct.block.0, ptr %0, i32 0, i32 1
  %61 = load i32, ptr %12, align 4, !tbaa !12
  %62 = sext i32 %61 to i64
  %63 = getelementptr inbounds [128 x i8], ptr %60, i64 0, i64 %62
  call void @llvm.memcpy.p0.p0.i64(ptr align 1 %63, ptr align 8 %13, i64 8, i1 false)
  call void @llvm.lifetime.end.p0(i64 8, ptr %13) #23
  call void @llvm.lifetime.end.p0(i64 4, ptr %12) #23
  call void @llvm.lifetime.end.p0(i64 4, ptr %11) #23
  call void @llvm.lifetime.end.p0(i64 4, ptr %10) #23
  br label %64

64:                                               ; preds = %40
  %65 = load i32, ptr %9, align 4, !tbaa !12
  %66 = add nsw i32 %65, 1
  store i32 %66, ptr %9, align 4, !tbaa !12
  br label %35, !llvm.loop !43

67:                                               ; preds = %39
  call void @llvm.lifetime.end.p0(i64 8, ptr %8) #23
  call void @llvm.lifetime.end.p0(i64 4, ptr %7) #23
  ret void
}

; Function Attrs: mustprogress uwtable
define internal noundef i32 @_ZL24repack_q4_0_to_q4_0_8_blP11ggml_tensoriPKvm(ptr noundef %0, i32 noundef %1, ptr noalias noundef %2, i64 noundef %3) #0 {
  %5 = alloca i32, align 4
  %6 = alloca ptr, align 8
  %7 = alloca i32, align 4
  %8 = alloca ptr, align 8
  %9 = alloca i64, align 8
  %10 = alloca i32, align 4
  %11 = alloca ptr, align 8
  %12 = alloca ptr, align 8
  %13 = alloca [8 x %struct.block_q4_0], align 16
  %14 = alloca i32, align 4
  %15 = alloca i32, align 4
  %16 = alloca i32, align 4
  %17 = alloca i32, align 4
  %18 = alloca i64, align 8
  %19 = alloca i32, align 4
  %20 = alloca %struct.block.0, align 2
  store ptr %0, ptr %6, align 8, !tbaa !4
  store i32 %1, ptr %7, align 4, !tbaa !12
  store ptr %2, ptr %8, align 8, !tbaa !9
  store i64 %3, ptr %9, align 8, !tbaa !10
  %21 = load ptr, ptr %6, align 8, !tbaa !4
  %22 = getelementptr inbounds nuw %struct.ggml_tensor, ptr %21, i32 0, i32 0
  %23 = load i32, ptr %22, align 8, !tbaa !14
  %24 = icmp eq i32 %23, 2
  br i1 %24, label %26, label %25

25:                                               ; preds = %4
  call void (ptr, i32, ptr, ...) @ggml_abort(ptr noundef @.str, i32 noundef 3695, ptr noundef @.str.1, ptr noundef @.str.2) #29
  unreachable

26:                                               ; preds = %4
  %27 = load i32, ptr %7, align 4, !tbaa !12
  %28 = icmp eq i32 %27, 8
  br i1 %28, label %30, label %29

29:                                               ; preds = %26
  call void (ptr, i32, ptr, ...) @ggml_abort(ptr noundef @.str, i32 noundef 3696, ptr noundef @.str.1, ptr noundef @.str.6) #29
  unreachable

30:                                               ; preds = %26
  call void @llvm.lifetime.start.p0(i64 4, ptr %10) #23
  store i32 8, ptr %10, align 4, !tbaa !12
  call void @llvm.lifetime.start.p0(i64 8, ptr %11) #23
  %31 = load ptr, ptr %6, align 8, !tbaa !4
  %32 = getelementptr inbounds nuw %struct.ggml_tensor, ptr %31, i32 0, i32 10
  %33 = load ptr, ptr %32, align 8, !tbaa !19
  store ptr %33, ptr %11, align 8, !tbaa !36
  call void @llvm.lifetime.start.p0(i64 8, ptr %12) #23
  %34 = load ptr, ptr %8, align 8, !tbaa !9
  store ptr %34, ptr %12, align 8, !tbaa !9
  call void @llvm.lifetime.start.p0(i64 144, ptr %13) #23
  call void @llvm.lifetime.start.p0(i64 4, ptr %14) #23
  %35 = load ptr, ptr %6, align 8, !tbaa !4
  %36 = call i64 @ggml_nrows(ptr noundef %35)
  %37 = trunc i64 %36 to i32
  store i32 %37, ptr %14, align 4, !tbaa !12
  call void @llvm.lifetime.start.p0(i64 4, ptr %15) #23
  %38 = load ptr, ptr %6, align 8, !tbaa !4
  %39 = getelementptr inbounds nuw %struct.ggml_tensor, ptr %38, i32 0, i32 2
  %40 = getelementptr inbounds [4 x i64], ptr %39, i64 0, i64 0
  %41 = load i64, ptr %40, align 8, !tbaa !10
  %42 = sdiv i64 %41, 32
  %43 = trunc i64 %42 to i32
  store i32 %43, ptr %15, align 4, !tbaa !12
  %44 = load i64, ptr %9, align 8, !tbaa !10
  %45 = load i32, ptr %14, align 4, !tbaa !12
  %46 = load i32, ptr %15, align 4, !tbaa !12
  %47 = mul nsw i32 %45, %46
  %48 = sext i32 %47 to i64
  %49 = mul i64 %48, 18
  %50 = icmp eq i64 %44, %49
  br i1 %50, label %52, label %51

51:                                               ; preds = %30
  call void (ptr, i32, ptr, ...) @ggml_abort(ptr noundef @.str, i32 noundef 3705, ptr noundef @.str.1, ptr noundef @.str.4) #29
  unreachable

52:                                               ; preds = %30
  %53 = load ptr, ptr %6, align 8, !tbaa !4
  %54 = getelementptr inbounds nuw %struct.ggml_tensor, ptr %53, i32 0, i32 2
  %55 = getelementptr inbounds [4 x i64], ptr %54, i64 0, i64 1
  %56 = load i64, ptr %55, align 8, !tbaa !10
  %57 = srem i64 %56, 8
  %58 = icmp ne i64 %57, 0
  br i1 %58, label %66, label %59

59:                                               ; preds = %52
  %60 = load ptr, ptr %6, align 8, !tbaa !4
  %61 = getelementptr inbounds nuw %struct.ggml_tensor, ptr %60, i32 0, i32 2
  %62 = getelementptr inbounds [4 x i64], ptr %61, i64 0, i64 0
  %63 = load i64, ptr %62, align 8, !tbaa !10
  %64 = srem i64 %63, 8
  %65 = icmp ne i64 %64, 0
  br i1 %65, label %66, label %67

66:                                               ; preds = %59, %52
  store i32 -1, ptr %5, align 4
  store i32 1, ptr %16, align 4
  br label %118

67:                                               ; preds = %59
  call void @llvm.lifetime.start.p0(i64 4, ptr %17) #23
  store i32 0, ptr %17, align 4, !tbaa !12
  br label %68

68:                                               ; preds = %114, %67
  %69 = load i32, ptr %17, align 4, !tbaa !12
  %70 = load i32, ptr %14, align 4, !tbaa !12
  %71 = icmp slt i32 %69, %70
  br i1 %71, label %73, label %72

72:                                               ; preds = %68
  store i32 2, ptr %16, align 4
  call void @llvm.lifetime.end.p0(i64 4, ptr %17) #23
  br label %117

73:                                               ; preds = %68
  call void @llvm.lifetime.start.p0(i64 8, ptr %18) #23
  store i64 0, ptr %18, align 8, !tbaa !10
  br label %74

74:                                               ; preds = %105, %73
  %75 = load i64, ptr %18, align 8, !tbaa !10
  %76 = load i32, ptr %15, align 4, !tbaa !12
  %77 = sext i32 %76 to i64
  %78 = icmp slt i64 %75, %77
  br i1 %78, label %80, label %79

79:                                               ; preds = %74
  store i32 5, ptr %16, align 4
  call void @llvm.lifetime.end.p0(i64 8, ptr %18) #23
  br label %108

80:                                               ; preds = %74
  call void @llvm.lifetime.start.p0(i64 4, ptr %19) #23
  store i32 0, ptr %19, align 4, !tbaa !12
  br label %81

81:                                               ; preds = %97, %80
  %82 = load i32, ptr %19, align 4, !tbaa !12
  %83 = icmp slt i32 %82, 8
  br i1 %83, label %85, label %84

84:                                               ; preds = %81
  store i32 8, ptr %16, align 4
  call void @llvm.lifetime.end.p0(i64 4, ptr %19) #23
  br label %100

85:                                               ; preds = %81
  %86 = load ptr, ptr %12, align 8, !tbaa !9
  %87 = load i64, ptr %18, align 8, !tbaa !10
  %88 = load i32, ptr %19, align 4, !tbaa !12
  %89 = load i32, ptr %15, align 4, !tbaa !12
  %90 = mul nsw i32 %88, %89
  %91 = sext i32 %90 to i64
  %92 = add nsw i64 %87, %91
  %93 = getelementptr inbounds %struct.block_q4_0, ptr %86, i64 %92
  %94 = load i32, ptr %19, align 4, !tbaa !12
  %95 = sext i32 %94 to i64
  %96 = getelementptr inbounds [8 x %struct.block_q4_0], ptr %13, i64 0, i64 %95
  call void @llvm.memcpy.p0.p0.i64(ptr align 2 %96, ptr align 2 %93, i64 18, i1 false), !tbaa.struct !22
  br label %97

97:                                               ; preds = %85
  %98 = load i32, ptr %19, align 4, !tbaa !12
  %99 = add nsw i32 %98, 1
  store i32 %99, ptr %19, align 4, !tbaa !12
  br label %81, !llvm.loop !38

100:                                              ; preds = %84
  call void @llvm.lifetime.start.p0(i64 144, ptr %20) #23
  %101 = getelementptr inbounds [8 x %struct.block_q4_0], ptr %13, i64 0, i64 0
  %102 = load i32, ptr %7, align 4, !tbaa !12
  call void @_ZL17make_block_q4_0x8P10block_q4_0j(ptr dead_on_unwind writable sret(%struct.block.0) align 2 %20, ptr noundef %101, i32 noundef %102)
  %103 = load ptr, ptr %11, align 8, !tbaa !36
  %104 = getelementptr inbounds nuw %struct.block.0, ptr %103, i32 1
  store ptr %104, ptr %11, align 8, !tbaa !36
  call void @llvm.memcpy.p0.p0.i64(ptr align 2 %103, ptr align 2 %20, i64 144, i1 false), !tbaa.struct !39
  call void @llvm.lifetime.end.p0(i64 144, ptr %20) #23
  br label %105

105:                                              ; preds = %100
  %106 = load i64, ptr %18, align 8, !tbaa !10
  %107 = add nsw i64 %106, 1
  store i64 %107, ptr %18, align 8, !tbaa !10
  br label %74, !llvm.loop !40

108:                                              ; preds = %79
  %109 = load i32, ptr %15, align 4, !tbaa !12
  %110 = mul nsw i32 8, %109
  %111 = load ptr, ptr %12, align 8, !tbaa !9
  %112 = sext i32 %110 to i64
  %113 = getelementptr inbounds %struct.block_q4_0, ptr %111, i64 %112
  store ptr %113, ptr %12, align 8, !tbaa !9
  br label %114

114:                                              ; preds = %108
  %115 = load i32, ptr %17, align 4, !tbaa !12
  %116 = add nsw i32 %115, 8
  store i32 %116, ptr %17, align 4, !tbaa !12
  br label %68, !llvm.loop !41

117:                                              ; preds = %72
  store i32 0, ptr %5, align 4
  store i32 1, ptr %16, align 4
  br label %118

118:                                              ; preds = %117, %66
  call void @llvm.lifetime.end.p0(i64 4, ptr %15) #23
  call void @llvm.lifetime.end.p0(i64 4, ptr %14) #23
  call void @llvm.lifetime.end.p0(i64 144, ptr %13) #23
  call void @llvm.lifetime.end.p0(i64 8, ptr %12) #23
  call void @llvm.lifetime.end.p0(i64 8, ptr %11) #23
  call void @llvm.lifetime.end.p0(i64 4, ptr %10) #23
  %119 = load i32, ptr %5, align 4
  ret i32 %119
}

; Function Attrs: mustprogress uwtable
define noundef i32 @_ZN4ggml3cpu7aarch646repackI10block_q4_0Ll8ELl8EEEiP11ggml_tensorPKvm(ptr noundef %0, ptr noundef %1, i64 noundef %2) #0 {
  %4 = alloca ptr, align 8
  %5 = alloca ptr, align 8
  %6 = alloca i64, align 8
  store ptr %0, ptr %4, align 8, !tbaa !4
  store ptr %1, ptr %5, align 8, !tbaa !9
  store i64 %2, ptr %6, align 8, !tbaa !10
  %7 = load ptr, ptr %4, align 8, !tbaa !4
  %8 = load ptr, ptr %5, align 8, !tbaa !9
  %9 = load i64, ptr %6, align 8, !tbaa !10
  %10 = call noundef i32 @_ZL24repack_q4_0_to_q4_0_8_blP11ggml_tensoriPKvm(ptr noundef %7, i32 noundef 8, ptr noundef %8, i64 noundef %9)
  ret i32 %10
}