; Function Attrs: mustprogress uwtable
define noundef range(i32 -1, 1) i32 @_ZN4ggml3cpu7aarch646repackI10block_q4_0Ll8ELl8EEEiP11ggml_tensorPKvm(ptr noundef %0, ptr noundef readonly captures(none) %1, i64 noundef %2) local_unnamed_addr #0 {
  %4 = alloca [8 x %struct.block_q4_0], align 16
  %5 = alloca %struct.block.0, align 2
  %6 = load i32, ptr %0, align 8, !tbaa !4, !noalias !34
  %7 = icmp eq i32 %6, 2
  br i1 %7, label %9, label %8

8:                                                ; preds = %3
  tail call void (ptr, i32, ptr, ...) @ggml_abort(ptr noundef nonnull @.str, i32 noundef 3695, ptr noundef nonnull @.str.1, ptr noundef nonnull @.str.2) #22, !noalias !34
  unreachable

9:                                                ; preds = %3
  %10 = getelementptr inbounds nuw i8, ptr %0, i64 248
  %11 = load ptr, ptr %10, align 8, !tbaa !15, !noalias !34
  call void @llvm.lifetime.start.p0(i64 144, ptr nonnull %4) #23, !noalias !34
  %12 = tail call i64 @ggml_nrows(ptr noundef nonnull %0), !noalias !34
  %13 = trunc i64 %12 to i32
  %14 = getelementptr inbounds nuw i8, ptr %0, i64 16
  %15 = load i64, ptr %14, align 8, !tbaa !16, !noalias !34
  %16 = sdiv i64 %15, 32
  %17 = trunc i64 %16 to i32
  %18 = shl i64 %12, 32
  %sext.i = mul i64 %18, %16
  %19 = ashr exact i64 %sext.i, 32
  %20 = mul nsw i64 %19, 18
  %21 = icmp eq i64 %2, %20
  br i1 %21, label %23, label %22

22:                                               ; preds = %9
  tail call void (ptr, i32, ptr, ...) @ggml_abort(ptr noundef nonnull @.str, i32 noundef 3705, ptr noundef nonnull @.str.1, ptr noundef nonnull @.str.4) #22, !noalias !34
  unreachable

23:                                               ; preds = %9
  %24 = getelementptr inbounds nuw i8, ptr %0, i64 24
  %25 = load i64, ptr %24, align 8, !tbaa !16, !noalias !34
  %26 = or i64 %25, %15
  %27 = and i64 %26, 7
  %or.cond.i = icmp eq i64 %27, 0
  br i1 %or.cond.i, label %.preheader37.i, label %_ZL24repack_q4_0_to_q4_0_8_blP11ggml_tensoriPKvm.exit

.preheader37.i:                                   ; preds = %23
  %28 = icmp sgt i32 %13, 0
  br i1 %28, label %.preheader36.lr.ph.i, label %_ZL24repack_q4_0_to_q4_0_8_blP11ggml_tensoriPKvm.exit

.preheader36.lr.ph.i:                             ; preds = %.preheader37.i
  %sext35.i = shl i64 %16, 32
  %29 = ashr exact i64 %sext35.i, 32
  %30 = icmp sgt i64 %29, 0
  %31 = getelementptr inbounds nuw i8, ptr %5, i64 16
  %32 = shl nsw i32 %17, 3
  %33 = sext i32 %32 to i64
  br i1 %30, label %.preheader36.us.i, label %_ZL24repack_q4_0_to_q4_0_8_blP11ggml_tensoriPKvm.exit

.preheader36.us.i:                                ; preds = %.preheader36.lr.ph.i, %._crit_edge.us.i
  %.02943.us.i = phi i32 [ %53, %._crit_edge.us.i ], [ 0, %.preheader36.lr.ph.i ]
  %.03142.us.i = phi ptr [ %45, %._crit_edge.us.i ], [ %11, %.preheader36.lr.ph.i ]
  %.03241.us.i = phi ptr [ %52, %._crit_edge.us.i ], [ %1, %.preheader36.lr.ph.i ]
  br label %.preheader.us.i

34:                                               ; preds = %47
  call void @llvm.lifetime.start.p0(i64 144, ptr nonnull %5) #23, !noalias !34
  tail call void @llvm.experimental.noalias.scope.decl(metadata !37)
  br label %35

35:                                               ; preds = %35, %34
  %indvars.iv.i.us.i = phi i64 [ 0, %34 ], [ %indvars.iv.next.i.us.i, %35 ]
  %36 = getelementptr inbounds nuw %struct.block_q4_0, ptr %4, i64 %indvars.iv.i.us.i
  %37 = load i16, ptr %36, align 2, !tbaa !20, !noalias !40
  %38 = getelementptr inbounds nuw [8 x i16], ptr %5, i64 0, i64 %indvars.iv.i.us.i
  store i16 %37, ptr %38, align 2, !tbaa !23, !alias.scope !37, !noalias !34
  %indvars.iv.next.i.us.i = add nuw nsw i64 %indvars.iv.i.us.i, 1
  %exitcond.not.i.us.i = icmp eq i64 %indvars.iv.next.i.us.i, 8
  br i1 %exitcond.not.i.us.i, label %.preheader.i.us.i, label %35, !llvm.loop !41

.preheader.i.us.i:                                ; preds = %35, %.preheader.i.us.i
  %indvars.iv23.i.us.i = phi i64 [ %indvars.iv.next24.i.us.i, %.preheader.i.us.i ], [ 0, %35 ]
  %39 = and i64 %indvars.iv23.i.us.i, 7
  %40 = and i64 %indvars.iv23.i.us.i, 8
  %41 = shl nuw nsw i64 %indvars.iv23.i.us.i, 3
  %42 = getelementptr inbounds nuw %struct.block_q4_0, ptr %4, i64 %39, i32 1, i64 %40
  %.0.copyload.i.us.i = load i64, ptr %42, align 2, !noalias !40
  %43 = xor i64 %.0.copyload.i.us.i, -8608480567731124088
  %44 = getelementptr inbounds nuw [128 x i8], ptr %31, i64 0, i64 %41
  store i64 %43, ptr %44, align 2, !alias.scope !37, !noalias !34
  %indvars.iv.next24.i.us.i = add nuw nsw i64 %indvars.iv23.i.us.i, 1
  %exitcond26.not.i.us.i = icmp eq i64 %indvars.iv.next24.i.us.i, 16
  br i1 %exitcond26.not.i.us.i, label %_ZL17make_block_q4_0x8P10block_q4_0j.exit.us.i, label %.preheader.i.us.i, !llvm.loop !42

_ZL17make_block_q4_0x8P10block_q4_0j.exit.us.i:   ; preds = %.preheader.i.us.i
  %45 = getelementptr inbounds nuw i8, ptr %.139.us.i, i64 144
  call void @llvm.memcpy.p0.p0.i64(ptr noundef nonnull align 2 dereferenceable(144) %.139.us.i, ptr noundef nonnull align 2 dereferenceable(144) %5, i64 144, i1 false), !tbaa.struct !43, !noalias !34
  call void @llvm.lifetime.end.p0(i64 144, ptr nonnull %5) #23, !noalias !34
  %46 = add nuw nsw i64 %.02840.us.i, 1
  %exitcond46.not.i = icmp eq i64 %46, %29
  br i1 %exitcond46.not.i, label %._crit_edge.us.i, label %.preheader.us.i, !llvm.loop !44

47:                                               ; preds = %.preheader.us.i, %47
  %indvars.iv.i = phi i64 [ 0, %.preheader.us.i ], [ %indvars.iv.next.i, %47 ]
  %48 = mul nuw nsw i64 %indvars.iv.i, %29
  %49 = getelementptr %struct.block_q4_0, ptr %51, i64 %48
  %50 = getelementptr inbounds nuw [8 x %struct.block_q4_0], ptr %4, i64 0, i64 %indvars.iv.i
  call void @llvm.memcpy.p0.p0.i64(ptr noundef nonnull align 2 dereferenceable(18) %50, ptr noundef nonnull align 2 dereferenceable(18) %49, i64 18, i1 false), !tbaa.struct !31
  %indvars.iv.next.i = add nuw nsw i64 %indvars.iv.i, 1
  %exitcond.not.i = icmp eq i64 %indvars.iv.next.i, 8
  br i1 %exitcond.not.i, label %34, label %47, !llvm.loop !45

.preheader.us.i:                                  ; preds = %_ZL17make_block_q4_0x8P10block_q4_0j.exit.us.i, %.preheader36.us.i
  %.02840.us.i = phi i64 [ 0, %.preheader36.us.i ], [ %46, %_ZL17make_block_q4_0x8P10block_q4_0j.exit.us.i ]
  %.139.us.i = phi ptr [ %.03142.us.i, %.preheader36.us.i ], [ %45, %_ZL17make_block_q4_0x8P10block_q4_0j.exit.us.i ]
  %51 = getelementptr %struct.block_q4_0, ptr %.03241.us.i, i64 %.02840.us.i
  br label %47

._crit_edge.us.i:                                 ; preds = %_ZL17make_block_q4_0x8P10block_q4_0j.exit.us.i
  %52 = getelementptr inbounds %struct.block_q4_0, ptr %.03241.us.i, i64 %33
  %53 = add nuw nsw i32 %.02943.us.i, 8
  %54 = icmp slt i32 %53, %13
  br i1 %54, label %.preheader36.us.i, label %_ZL24repack_q4_0_to_q4_0_8_blP11ggml_tensoriPKvm.exit, !llvm.loop !46

_ZL24repack_q4_0_to_q4_0_8_blP11ggml_tensoriPKvm.exit: ; preds = %._crit_edge.us.i, %23, %.preheader37.i, %.preheader36.lr.ph.i
  %.030.i = phi i32 [ -1, %23 ], [ 0, %.preheader37.i ], [ 0, %.preheader36.lr.ph.i ], [ 0, %._crit_edge.us.i ]
  call void @llvm.lifetime.end.p0(i64 144, ptr nonnull %4) #23, !noalias !34
  ret i32 %.030.i
}